target datalayout = "e-m:e-p270:32:32-p271:32:32-p272:64:64-i64:64-i128:128-f80:128-n8:16:32:64-S128"
target triple = "x86_64-pc-linux-gnu"

%struct.mlib_affine_param = type { ptr, ptr, ptr, ptr, ptr, ptr, ptr, ptr, ptr, i32, i32, i32, i32, i32, i32, i32, ptr, i32 }

; Function Attrs: nounwind uwtable
define hidden i32 @mlib_ImageAffine_s32_1ch_bl(ptr noundef %0) #0 {
  %2 = alloca ptr, align 8
  %3 = alloca ptr, align 8
  %4 = alloca ptr, align 8
  %5 = alloca ptr, align 8
  %6 = alloca ptr, align 8
  %7 = alloca ptr, align 8
  %8 = alloca ptr, align 8
  %9 = alloca i32, align 4
  %10 = alloca i32, align 4
  %11 = alloca i32, align 4
  %12 = alloca i32, align 4
  %13 = alloca i32, align 4
  %14 = alloca i32, align 4
  %15 = alloca i32, align 4
  %16 = alloca i32, align 4
  %17 = alloca i32, align 4
  %18 = alloca i32, align 4
  %19 = alloca ptr, align 8
  %20 = alloca ptr, align 8
  %21 = alloca ptr, align 8
  %22 = alloca i32, align 4
  %23 = alloca i32, align 4
  %24 = alloca i32, align 4
  %25 = alloca ptr, align 8
  %26 = alloca double, align 8
  %27 = alloca i32, align 4
  %28 = alloca double, align 8
  %29 = alloca double, align 8
  %30 = alloca double, align 8
  %31 = alloca double, align 8
  %32 = alloca double, align 8
  %33 = alloca double, align 8
  %34 = alloca double, align 8
  %35 = alloca double, align 8
  %36 = alloca double, align 8
  %37 = alloca double, align 8
  %38 = alloca double, align 8
  store ptr %0, ptr %2, align 8
  %39 = load ptr, ptr %2, align 8
  %40 = getelementptr inbounds %struct.mlib_affine_param, ptr %39, i32 0, i32 5
  %41 = load ptr, ptr %40, align 8
  store ptr %41, ptr %3, align 8
  %42 = load ptr, ptr %2, align 8
  %43 = getelementptr inbounds %struct.mlib_affine_param, ptr %42, i32 0, i32 6
  %44 = load ptr, ptr %43, align 8
  store ptr %44, ptr %4, align 8
  %45 = load ptr, ptr %2, align 8
  %46 = getelementptr inbounds %struct.mlib_affine_param, ptr %45, i32 0, i32 7
  %47 = load ptr, ptr %46, align 8
  store ptr %47, ptr %5, align 8
  %48 = load ptr, ptr %2, align 8
  %49 = getelementptr inbounds %struct.mlib_affine_param, ptr %48, i32 0, i32 8
  %50 = load ptr, ptr %49, align 8
  store ptr %50, ptr %6, align 8
  %51 = load ptr, ptr %2, align 8
  %52 = getelementptr inbounds %struct.mlib_affine_param, ptr %51, i32 0, i32 4
  %53 = load ptr, ptr %52, align 8
  store ptr %53, ptr %7, align 8
  %54 = load ptr, ptr %2, align 8
  %55 = getelementptr inbounds %struct.mlib_affine_param, ptr %54, i32 0, i32 3
  %56 = load ptr, ptr %55, align 8
  store ptr %56, ptr %8, align 8
  %57 = load ptr, ptr %2, align 8
  %58 = getelementptr inbounds %struct.mlib_affine_param, ptr %57, i32 0, i32 15
  %59 = load i32, ptr %58, align 8
  store i32 %59, ptr %9, align 4
  %60 = load ptr, ptr %2, align 8
  %61 = getelementptr inbounds %struct.mlib_affine_param, ptr %60, i32 0, i32 9
  %62 = load i32, ptr %61, align 8
  store i32 %62, ptr %14, align 4
  %63 = load ptr, ptr %2, align 8
  %64 = getelementptr inbounds %struct.mlib_affine_param, ptr %63, i32 0, i32 10
  %65 = load i32, ptr %64, align 4
  store i32 %65, ptr %15, align 4
  %66 = load ptr, ptr %2, align 8
  %67 = getelementptr inbounds %struct.mlib_affine_param, ptr %66, i32 0, i32 11
  %68 = load i32, ptr %67, align 8
  store i32 %68, ptr %16, align 4
  %69 = load ptr, ptr %2, align 8
  %70 = getelementptr inbounds %struct.mlib_affine_param, ptr %69, i32 0, i32 12
  %71 = load i32, ptr %70, align 4
  store i32 %71, ptr %17, align 4
  %72 = load ptr, ptr %2, align 8
  %73 = getelementptr inbounds %struct.mlib_affine_param, ptr %72, i32 0, i32 16
  %74 = load ptr, ptr %73, align 8
  store ptr %74, ptr %19, align 8
  %75 = load ptr, ptr %2, align 8
  %76 = getelementptr inbounds %struct.mlib_affine_param, ptr %75, i32 0, i32 14
  %77 = load i32, ptr %76, align 4
  store i32 %77, ptr %24, align 4
  store double 0x3EF0000000000000, ptr %26, align 8
  %78 = load i32, ptr %24, align 4
  %79 = sext i32 %78 to i64
  %80 = udiv i64 %79, 4
  %81 = trunc i64 %80 to i32
  store i32 %81, ptr %24, align 4
  %82 = load i32, ptr %24, align 4
  %83 = add nsw i32 %82, 1
  store i32 %83, ptr %27, align 4
  %84 = load i32, ptr %14, align 4
  store i32 %84, ptr %18, align 4
  br label %85

85:                                               ; preds = %332, %1
  %86 = load i32, ptr %18, align 4
  %87 = load i32, ptr %15, align 4
  %88 = icmp sle i32 %86, %87
  br i1 %88, label %89, label %335

89:                                               ; preds = %85
  %90 = load i32, ptr %9, align 4
  %91 = load ptr, ptr %7, align 8
  %92 = sext i32 %90 to i64
  %93 = getelementptr inbounds i8, ptr %91, i64 %92
  store ptr %93, ptr %7, align 8
  %94 = load ptr, ptr %3, align 8
  %95 = load i32, ptr %18, align 4
  %96 = sext i32 %95 to i64
  %97 = getelementptr inbounds i32, ptr %94, i64 %96
  %98 = load i32, ptr %97, align 4
  store i32 %98, ptr %10, align 4
  %99 = load ptr, ptr %4, align 8
  %100 = load i32, ptr %18, align 4
  %101 = sext i32 %100 to i64
  %102 = getelementptr inbounds i32, ptr %99, i64 %101
  %103 = load i32, ptr %102, align 4
  store i32 %103, ptr %11, align 4
  %104 = load ptr, ptr %5, align 8
  %105 = load i32, ptr %18, align 4
  %106 = sext i32 %105 to i64
  %107 = getelementptr inbounds i32, ptr %104, i64 %106
  %108 = load i32, ptr %107, align 4
  store i32 %108, ptr %12, align 4
  %109 = load ptr, ptr %6, align 8
  %110 = load i32, ptr %18, align 4
  %111 = sext i32 %110 to i64
  %112 = getelementptr inbounds i32, ptr %109, i64 %111
  %113 = load i32, ptr %112, align 4
  store i32 %113, ptr %13, align 4
  %114 = load ptr, ptr %19, align 8
  %115 = icmp ne ptr %114, null
  br i1 %115, label %116, label %130

116:                                              ; preds = %89
  %117 = load ptr, ptr %19, align 8
  %118 = load i32, ptr %18, align 4
  %119 = mul nsw i32 2, %118
  %120 = sext i32 %119 to i64
  %121 = getelementptr inbounds i32, ptr %117, i64 %120
  %122 = load i32, ptr %121, align 4
  store i32 %122, ptr %16, align 4
  %123 = load ptr, ptr %19, align 8
  %124 = load i32, ptr %18, align 4
  %125 = mul nsw i32 2, %124
  %126 = add nsw i32 %125, 1
  %127 = sext i32 %126 to i64
  %128 = getelementptr inbounds i32, ptr %123, i64 %127
  %129 = load i32, ptr %128, align 4
  store i32 %129, ptr %17, align 4
  br label %130

130:                                              ; preds = %116, %89
  %131 = load i32, ptr %10, align 4
  %132 = load i32, ptr %11, align 4
  %133 = icmp sgt i32 %131, %132
  br i1 %133, label %134, label %135

134:                                              ; preds = %130
  br label %332

135:                                              ; preds = %130
  %136 = load ptr, ptr %7, align 8
  %137 = load i32, ptr %10, align 4
  %138 = mul nsw i32 1, %137
  %139 = sext i32 %138 to i64
  %140 = getelementptr inbounds i32, ptr %136, i64 %139
  store ptr %140, ptr %20, align 8
  %141 = load ptr, ptr %7, align 8
  %142 = load i32, ptr %11, align 4
  %143 = sext i32 %142 to i64
  %144 = getelementptr inbounds i32, ptr %141, i64 %143
  store ptr %144, ptr %25, align 8
  %145 = load i32, ptr %12, align 4
  %146 = and i32 %145, 65535
  %147 = sitofp i32 %146 to double
  %148 = load double, ptr %26, align 8
  %149 = fmul double %147, %148
  store double %149, ptr %28, align 8
  %150 = load i32, ptr %13, align 4
  %151 = and i32 %150, 65535
  %152 = sitofp i32 %151 to double
  %153 = load double, ptr %26, align 8
  %154 = fmul double %152, %153
  store double %154, ptr %29, align 8
  %155 = load i32, ptr %13, align 4
  %156 = ashr i32 %155, 13
  %157 = and i32 %156, -8
  store i32 %157, ptr %23, align 4
  %158 = load i32, ptr %17, align 4
  %159 = load i32, ptr %13, align 4
  %160 = add nsw i32 %159, %158
  store i32 %160, ptr %13, align 4
  %161 = load i32, ptr %12, align 4
  %162 = ashr i32 %161, 16
  store i32 %162, ptr %22, align 4
  %163 = load i32, ptr %16, align 4
  %164 = load i32, ptr %12, align 4
  %165 = add nsw i32 %164, %163
  store i32 %165, ptr %12, align 4
  %166 = load ptr, ptr %8, align 8
  %167 = load i32, ptr %23, align 4
  %168 = sext i32 %167 to i64
  %169 = getelementptr inbounds i8, ptr %166, i64 %168
  %170 = load ptr, ptr %169, align 8
  %171 = load i32, ptr %22, align 4
  %172 = sext i32 %171 to i64
  %173 = getelementptr inbounds i32, ptr %170, i64 %172
  store ptr %173, ptr %21, align 8
  %174 = load double, ptr %28, align 8
  %175 = load double, ptr %29, align 8
  %176 = fmul double %174, %175
  store double %176, ptr %33, align 8
  %177 = load double, ptr %28, align 8
  %178 = fsub double 1.000000e+00, %177
  %179 = load double, ptr %29, align 8
  %180 = fmul double %178, %179
  store double %180, ptr %32, align 8
  %181 = load double, ptr %28, align 8
  %182 = load double, ptr %29, align 8
  %183 = fsub double 1.000000e+00, %182
  %184 = fmul double %181, %183
  store double %184, ptr %31, align 8
  %185 = load double, ptr %28, align 8
  %186 = fsub double 1.000000e+00, %185
  %187 = load double, ptr %29, align 8
  %188 = fsub double 1.000000e+00, %187
  %189 = fmul double %186, %188
  store double %189, ptr %30, align 8
  %190 = load ptr, ptr %21, align 8
  %191 = getelementptr inbounds i32, ptr %190, i64 0
  %192 = load i32, ptr %191, align 4
  %193 = sitofp i32 %192 to double
  store double %193, ptr %34, align 8
  %194 = load ptr, ptr %21, align 8
  %195 = getelementptr inbounds i32, ptr %194, i64 1
  %196 = load i32, ptr %195, align 4
  %197 = sitofp i32 %196 to double
  store double %197, ptr %35, align 8
  %198 = load ptr, ptr %21, align 8
  %199 = load i32, ptr %24, align 4
  %200 = sext i32 %199 to i64
  %201 = getelementptr inbounds i32, ptr %198, i64 %200
  %202 = load i32, ptr %201, align 4
  %203 = sitofp i32 %202 to double
  store double %203, ptr %36, align 8
  %204 = load ptr, ptr %21, align 8
  %205 = load i32, ptr %27, align 4
  %206 = sext i32 %205 to i64
  %207 = getelementptr inbounds i32, ptr %204, i64 %206
  %208 = load i32, ptr %207, align 4
  %209 = sitofp i32 %208 to double
  store double %209, ptr %37, align 8
  br label %210

210:                                              ; preds = %304, %135
  %211 = load ptr, ptr %20, align 8
  %212 = load ptr, ptr %25, align 8
  %213 = icmp ult ptr %211, %212
  br i1 %213, label %214, label %307

214:                                              ; preds = %210
  %215 = load double, ptr %30, align 8
  %216 = load double, ptr %34, align 8
  %217 = load double, ptr %31, align 8
  %218 = load double, ptr %35, align 8
  %219 = fmul double %217, %218
  %220 = call double @llvm.fmuladd.f64(double %215, double %216, double %219)
  %221 = load double, ptr %32, align 8
  %222 = load double, ptr %36, align 8
  %223 = call double @llvm.fmuladd.f64(double %221, double %222, double %220)
  %224 = load double, ptr %33, align 8
  %225 = load double, ptr %37, align 8
  %226 = call double @llvm.fmuladd.f64(double %224, double %225, double %223)
  store double %226, ptr %38, align 8
  %227 = load i32, ptr %12, align 4
  %228 = and i32 %227, 65535
  %229 = sitofp i32 %228 to double
  %230 = load double, ptr %26, align 8
  %231 = fmul double %229, %230
  store double %231, ptr %28, align 8
  %232 = load i32, ptr %13, align 4
  %233 = and i32 %232, 65535
  %234 = sitofp i32 %233 to double
  %235 = load double, ptr %26, align 8
  %236 = fmul double %234, %235
  store double %236, ptr %29, align 8
  %237 = load i32, ptr %13, align 4
  %238 = ashr i32 %237, 13
  %239 = and i32 %238, -8
  store i32 %239, ptr %23, align 4
  %240 = load i32, ptr %17, align 4
  %241 = load i32, ptr %13, align 4
  %242 = add nsw i32 %241, %240
  store i32 %242, ptr %13, align 4
  %243 = load i32, ptr %12, align 4
  %244 = ashr i32 %243, 16
  store i32 %244, ptr %22, align 4
  %245 = load i32, ptr %16, align 4
  %246 = load i32, ptr %12, align 4
  %247 = add nsw i32 %246, %245
  store i32 %247, ptr %12, align 4
  %248 = load ptr, ptr %8, align 8
  %249 = load i32, ptr %23, align 4
  %250 = sext i32 %249 to i64
  %251 = getelementptr inbounds i8, ptr %248, i64 %250
  %252 = load ptr, ptr %251, align 8
  %253 = load i32, ptr %22, align 4
  %254 = sext i32 %253 to i64
  %255 = getelementptr inbounds i32, ptr %252, i64 %254
  store ptr %255, ptr %21, align 8
  %256 = load double, ptr %28, align 8
  %257 = load double, ptr %29, align 8
  %258 = fmul double %256, %257
  store double %258, ptr %33, align 8
  %259 = load double, ptr %28, align 8
  %260 = fsub double 1.000000e+00, %259
  %261 = load double, ptr %29, align 8
  %262 = fmul double %260, %261
  store double %262, ptr %32, align 8
  %263 = load double, ptr %28, align 8
  %264 = load double, ptr %29, align 8
  %265 = fsub double 1.000000e+00, %264
  %266 = fmul double %263, %265
  store double %266, ptr %31, align 8
  %267 = load double, ptr %28, align 8
  %268 = fsub double 1.000000e+00, %267
  %269 = load double, ptr %29, align 8
  %270 = fsub double 1.000000e+00, %269
  %271 = fmul double %268, %270
  store double %271, ptr %30, align 8
  %272 = load ptr, ptr %21, align 8
  %273 = getelementptr inbounds i32, ptr %272, i64 0
  %274 = load i32, ptr %273, align 4
  %275 = sitofp i32 %274 to double
  store double %275, ptr %34, align 8
  %276 = load ptr, ptr %21, align 8
  %277 = getelementptr inbounds i32, ptr %276, i64 1
  %278 = load i32, ptr %277, align 4
  %279 = sitofp i32 %278 to double
  store double %279, ptr %35, align 8
  %280 = load ptr, ptr %21, align 8
  %281 = load i32, ptr %24, align 4
  %282 = sext i32 %281 to i64
  %283 = getelementptr inbounds i32, ptr %280, i64 %282
  %284 = load i32, ptr %283, align 4
  %285 = sitofp i32 %284 to double
  store double %285, ptr %36, align 8
  %286 = load ptr, ptr %21, align 8
  %287 = load i32, ptr %27, align 4
  %288 = sext i32 %287 to i64
  %289 = getelementptr inbounds i32, ptr %286, i64 %288
  %290 = load i32, ptr %289, align 4
  %291 = sitofp i32 %290 to double
  store double %291, ptr %37, align 8
  %292 = load double, ptr %38, align 8
  %293 = fcmp oge double %292, 0x41DFFFFFFFC00000
  br i1 %293, label %294, label %295

294:                                              ; preds = %214
  store double 0x41DFFFFFFFC00000, ptr %38, align 8
  br label %295

295:                                              ; preds = %294, %214
  %296 = load double, ptr %38, align 8
  %297 = fcmp ole double %296, 0xC1E0000000000000
  br i1 %297, label %298, label %299

298:                                              ; preds = %295
  store double 0xC1E0000000000000, ptr %38, align 8
  br label %299

299:                                              ; preds = %298, %295
  %300 = load double, ptr %38, align 8
  %301 = fptosi double %300 to i32
  %302 = load ptr, ptr %20, align 8
  %303 = getelementptr inbounds i32, ptr %302, i64 0
  store i32 %301, ptr %303, align 4
  br label %304

304:                                              ; preds = %299
  %305 = load ptr, ptr %20, align 8
  %306 = getelementptr inbounds i32, ptr %305, i32 1
  store ptr %306, ptr %20, align 8
  br label %210, !llvm.loop !6

307:                                              ; preds = %210
  %308 = load double, ptr %30, align 8
  %309 = load double, ptr %34, align 8
  %310 = load double, ptr %31, align 8
  %311 = load double, ptr %35, align 8
  %312 = fmul double %310, %311
  %313 = call double @llvm.fmuladd.f64(double %308, double %309, double %312)
  %314 = load double, ptr %32, align 8
  %315 = load double, ptr %36, align 8
  %316 = call double @llvm.fmuladd.f64(double %314, double %315, double %313)
  %317 = load double, ptr %33, align 8
  %318 = load double, ptr %37, align 8
  %319 = call double @llvm.fmuladd.f64(double %317, double %318, double %316)
  store double %319, ptr %38, align 8
  %320 = load double, ptr %38, align 8
  %321 = fcmp oge double %320, 0x41DFFFFFFFC00000
  br i1 %321, label %322, label %323

322:                                              ; preds = %307
  store double 0x41DFFFFFFFC00000, ptr %38, align 8
  br label %323

323:                                              ; preds = %322, %307
  %324 = load double, ptr %38, align 8
  %325 = fcmp ole double %324, 0xC1E0000000000000
  br i1 %325, label %326, label %327

326:                                              ; preds = %323
  store double 0xC1E0000000000000, ptr %38, align 8
  br label %327

327:                                              ; preds = %326, %323
  %328 = load double, ptr %38, align 8
  %329 = fptosi double %328 to i32
  %330 = load ptr, ptr %20, align 8
  %331 = getelementptr inbounds i32, ptr %330, i64 0
  store i32 %329, ptr %331, align 4
  br label %332

332:                                              ; preds = %327, %134
  %333 = load i32, ptr %18, align 4
  %334 = add nsw i32 %333, 1
  store i32 %334, ptr %18, align 4
  br label %85, !llvm.loop !8

335:                                              ; preds = %85
  ret i32 0
}