; Function Attrs: nofree norecurse nosync nounwind memory(readwrite, inaccessiblemem: none) uwtable
define hidden noundef i32 @mlib_ImageAffine_s32_1ch_bl(ptr nocapture noundef readonly %0) local_unnamed_addr #0 {
  %2 = getelementptr inbounds i8, ptr %0, i64 40
  %3 = load ptr, ptr %2, align 8
  %4 = getelementptr inbounds i8, ptr %0, i64 48
  %5 = load ptr, ptr %4, align 8
  %6 = getelementptr inbounds i8, ptr %0, i64 56
  %7 = load ptr, ptr %6, align 8
  %8 = getelementptr inbounds i8, ptr %0, i64 64
  %9 = load ptr, ptr %8, align 8
  %10 = getelementptr inbounds i8, ptr %0, i64 24
  %11 = load ptr, ptr %10, align 8
  %12 = getelementptr inbounds i8, ptr %0, i64 72
  %13 = load i32, ptr %12, align 8
  %14 = getelementptr inbounds i8, ptr %0, i64 76
  %15 = load i32, ptr %14, align 4
  %16 = getelementptr inbounds i8, ptr %0, i64 104
  %17 = load ptr, ptr %16, align 8
  %.not170 = icmp sgt i32 %13, %15
  br i1 %.not170, label %._crit_edge177, label %.lr.ph176

.lr.ph176:                                        ; preds = %1
  %18 = getelementptr inbounds i8, ptr %0, i64 92
  %19 = load i32, ptr %18, align 4
  %20 = ashr i32 %19, 2
  %21 = getelementptr inbounds i8, ptr %0, i64 84
  %22 = load i32, ptr %21, align 4
  %23 = getelementptr inbounds i8, ptr %0, i64 80
  %24 = load i32, ptr %23, align 8
  %25 = getelementptr inbounds i8, ptr %0, i64 96
  %26 = load i32, ptr %25, align 8
  %27 = getelementptr inbounds i8, ptr %0, i64 32
  %28 = load ptr, ptr %27, align 8
  %29 = sext i32 %26 to i64
  %.not142 = icmp eq ptr %17, null
  %30 = sext i32 %20 to i64
  %31 = sext i32 %13 to i64
  %32 = add i32 %15, 1
  br label %33

33:                                               ; preds = %.lr.ph176, %130
  %indvars.iv = phi i64 [ %31, %.lr.ph176 ], [ %indvars.iv.next, %130 ]
  %.0128174 = phi ptr [ %28, %.lr.ph176 ], [ %34, %130 ]
  %.0132173 = phi i32 [ %24, %.lr.ph176 ], [ %.1133, %130 ]
  %.0135171 = phi i32 [ %22, %.lr.ph176 ], [ %.1136, %130 ]
  %34 = getelementptr inbounds i8, ptr %.0128174, i64 %29
  %35 = getelementptr inbounds i32, ptr %3, i64 %indvars.iv
  %36 = load i32, ptr %35, align 4
  %37 = getelementptr inbounds i32, ptr %5, i64 %indvars.iv
  %38 = load i32, ptr %37, align 4
  %39 = getelementptr inbounds i32, ptr %7, i64 %indvars.iv
  %40 = load i32, ptr %39, align 4
  %41 = getelementptr inbounds i32, ptr %9, i64 %indvars.iv
  %42 = load i32, ptr %41, align 4
  br i1 %.not142, label %50, label %43

43:                                               ; preds = %33
  %44 = shl nsw i64 %indvars.iv, 1
  %45 = getelementptr inbounds i32, ptr %17, i64 %44
  %46 = load i32, ptr %45, align 4
  %47 = or disjoint i64 %44, 1
  %48 = getelementptr inbounds i32, ptr %17, i64 %47
  %49 = load i32, ptr %48, align 4
  br label %50

50:                                               ; preds = %43, %33
  %.1136 = phi i32 [ %49, %43 ], [ %.0135171, %33 ]
  %.1133 = phi i32 [ %46, %43 ], [ %.0132173, %33 ]
  %51 = icmp sgt i32 %36, %38
  br i1 %51, label %130, label %52

52:                                               ; preds = %50
  %53 = sext i32 %36 to i64
  %54 = getelementptr inbounds i32, ptr %34, i64 %53
  %55 = sext i32 %38 to i64
  %56 = getelementptr inbounds i32, ptr %34, i64 %55
  %57 = and i32 %40, 65535
  %58 = uitofp nneg i32 %57 to double
  %59 = fmul double %58, 0x3EF0000000000000
  %60 = and i32 %42, 65535
  %61 = uitofp nneg i32 %60 to double
  %62 = fmul double %61, 0x3EF0000000000000
  %63 = ashr i32 %42, 13
  %64 = and i32 %63, -8
  %65 = ashr i32 %40, 16
  %66 = sext i32 %64 to i64
  %67 = getelementptr inbounds i8, ptr %11, i64 %66
  %68 = load ptr, ptr %67, align 8
  %69 = sext i32 %65 to i64
  %70 = getelementptr inbounds i32, ptr %68, i64 %69
  %71 = fmul double %59, %62
  %72 = fsub double 1.000000e+00, %59
  %73 = fmul double %72, %62
  %74 = fsub double 1.000000e+00, %62
  %75 = fmul double %59, %74
  %76 = fmul double %72, %74
  %77 = load <2 x i32>, ptr %70, align 4
  %78 = getelementptr inbounds i32, ptr %70, i64 %30
  %79 = load <2 x i32>, ptr %78, align 4
  %80 = shufflevector <2 x i32> %79, <2 x i32> %77, <4 x i32> <i32 0, i32 1, i32 2, i32 3>
  %81 = sitofp <4 x i32> %80 to <4 x double>
  %82 = icmp slt i32 %36, %38
  br i1 %82, label %.lr.ph, label %._crit_edge

.lr.ph:                                           ; preds = %52, %.lr.ph
  %.0124157 = phi double [ %106, %.lr.ph ], [ %71, %52 ]
  %.0125156 = phi double [ %108, %.lr.ph ], [ %73, %52 ]
  %.0126155 = phi double [ %110, %.lr.ph ], [ %75, %52 ]
  %.0127154 = phi double [ %111, %.lr.ph ], [ %76, %52 ]
  %.pn143153 = phi i32 [ %.0129, %.lr.ph ], [ %40, %52 ]
  %.pn152 = phi i32 [ %.0130, %.lr.ph ], [ %42, %52 ]
  %.0131151 = phi ptr [ %116, %.lr.ph ], [ %54, %52 ]
  %83 = phi <4 x double> [ %118, %.lr.ph ], [ %81, %52 ]
  %.0130 = add nsw i32 %.pn152, %.1136
  %.0129 = add nsw i32 %.pn143153, %.1133
  %84 = extractelement <4 x double> %83, i64 3
  %85 = fmul double %.0126155, %84
  %86 = extractelement <4 x double> %83, i64 2
  %87 = tail call double @llvm.fmuladd.f64(double %.0127154, double %86, double %85)
  %88 = extractelement <4 x double> %83, i64 0
  %89 = tail call double @llvm.fmuladd.f64(double %.0125156, double %88, double %87)
  %90 = extractelement <4 x double> %83, i64 1
  %91 = tail call double @llvm.fmuladd.f64(double %.0124157, double %90, double %89)
  %92 = and i32 %.0129, 65535
  %93 = uitofp nneg i32 %92 to double
  %94 = fmul double %93, 0x3EF0000000000000
  %95 = and i32 %.0130, 65535
  %96 = uitofp nneg i32 %95 to double
  %97 = fmul double %96, 0x3EF0000000000000
  %98 = ashr i32 %.0130, 13
  %99 = and i32 %98, -8
  %100 = ashr i32 %.0129, 16
  %101 = sext i32 %99 to i64
  %102 = getelementptr inbounds i8, ptr %11, i64 %101
  %103 = load ptr, ptr %102, align 8
  %104 = sext i32 %100 to i64
  %105 = getelementptr inbounds i32, ptr %103, i64 %104
  %106 = fmul double %97, %94
  %107 = fsub double 1.000000e+00, %94
  %108 = fmul double %97, %107
  %109 = fsub double 1.000000e+00, %97
  %110 = fmul double %94, %109
  %111 = fmul double %109, %107
  %112 = load <2 x i32>, ptr %105, align 4
  %113 = getelementptr inbounds i32, ptr %105, i64 %30
  %114 = load <2 x i32>, ptr %113, align 4
  %.inv145 = fcmp oge double %91, 0x41DFFFFFFFC00000
  %.0 = select i1 %.inv145, double 0x41DFFFFFFFC00000, double %91
  %.inv146 = fcmp ole double %.0, 0xC1E0000000000000
  %.1 = select i1 %.inv146, double 0xC1E0000000000000, double %.0
  %115 = fptosi double %.1 to i32
  store i32 %115, ptr %.0131151, align 4
  %116 = getelementptr inbounds i8, ptr %.0131151, i64 4
  %117 = shufflevector <2 x i32> %114, <2 x i32> %112, <4 x i32> <i32 0, i32 1, i32 2, i32 3>
  %118 = sitofp <4 x i32> %117 to <4 x double>
  %119 = icmp ult ptr %116, %56
  br i1 %119, label %.lr.ph, label %._crit_edge, !llvm.loop !6

._crit_edge:                                      ; preds = %.lr.ph, %52
  %.0131.lcssa = phi ptr [ %54, %52 ], [ %116, %.lr.ph ]
  %.0127.lcssa = phi double [ %76, %52 ], [ %111, %.lr.ph ]
  %.0126.lcssa = phi double [ %75, %52 ], [ %110, %.lr.ph ]
  %.0125.lcssa = phi double [ %73, %52 ], [ %108, %.lr.ph ]
  %.0124.lcssa = phi double [ %71, %52 ], [ %106, %.lr.ph ]
  %120 = phi <4 x double> [ %81, %52 ], [ %118, %.lr.ph ]
  %121 = extractelement <4 x double> %120, i64 3
  %122 = fmul double %.0126.lcssa, %121
  %123 = extractelement <4 x double> %120, i64 2
  %124 = tail call double @llvm.fmuladd.f64(double %.0127.lcssa, double %123, double %122)
  %125 = extractelement <4 x double> %120, i64 0
  %126 = tail call double @llvm.fmuladd.f64(double %.0125.lcssa, double %125, double %124)
  %127 = extractelement <4 x double> %120, i64 1
  %128 = tail call double @llvm.fmuladd.f64(double %.0124.lcssa, double %127, double %126)
  %.inv = fcmp oge double %128, 0x41DFFFFFFFC00000
  %.2 = select i1 %.inv, double 0x41DFFFFFFFC00000, double %128
  %.inv144 = fcmp ole double %.2, 0xC1E0000000000000
  %.3 = select i1 %.inv144, double 0xC1E0000000000000, double %.2
  %129 = fptosi double %.3 to i32
  store i32 %129, ptr %.0131.lcssa, align 4
  br label %130

130:                                              ; preds = %50, %._crit_edge
  %indvars.iv.next = add nsw i64 %indvars.iv, 1
  %lftr.wideiv = trunc i64 %indvars.iv.next to i32
  %exitcond.not = icmp eq i32 %32, %lftr.wideiv
  br i1 %exitcond.not, label %._crit_edge177, label %33, !llvm.loop !8

._crit_edge177:                                   ; preds = %130, %1
  ret i32 0
}